(dp0
S'SUE'
p1
S'es%3Dd32a5ae62e7874073600927115ecfc51%26ev%3Dv1%26es2%3Dafe97464de47020b9dac9017d27ada7f%26rs0%3Dz7LMcDoCNcVUxV6SCjnspqKNJWKIKULXyvub3Kxa588iQXwcs6VLA11mwZNyGvhvnM41IZFx58quAu6srIhVmIfIBZQuxbzTuaDsZ3Cmdkt9TXBpkfmVol7D%252Fl5MpcRPvZuKS7fmi21cGp0vpQSc83bfljxUVhQcSbrUehDc5E0%253D%26rv%3D0'
p2
sS'SRF'
p3
S'1416402984'
p4
sS'SUB'
p5
S'_2AkMjMBcfa8NlrAFWmPwTymrqb41H-jyQ5t3pAn7uJhIyHRgv7nkFqSW516DN1VedXy14jxs3Llo5e3NG8g..'
p6
sS'SUBP'
p7
S'0033WrSXqPxfM725Ws9jqgMF55529P9D9WWLuJ_XWCeFlM5sN7.OXb4c5JpX5K2t'
p8
sS'ALF'
p9
S'1447938984'
p10
sS'YF-Ugrow-G0'
p11
S'062d74e096398759b246e61a81b65c98'
p12
sS'SUS'
p13
S'SID-2704661830-1416402984-GZ-zj5tx-e10ffe942a71b644142cdca21f4df2b2'
p14
sS'SRT'
p15
S'E.vAfpiqvriZRoKDJnv!W8AvmBvXvCvXM4UHXfvnEABvzvvv4mSPwCUARmvvvGbnVmPF0x1vXFvRvvvX5QCXzvBvrBJAtBvA0BvMmCvvzNvAz7*B.vAflW-P9Rc0lR-ykADvnJqiQVbiRVPBtS!r3JZPQVqbgVdWiMZ4siOzu4DbmKPWQOGP1QsYQA-PFUmrsVrt3I!yRRZMZi49ndDPIJeA7'
p16
sS'SUP'
p17
S'cv%3D1%26bt%3D1416402984%26et%3D1416489384%26d%3Dc909%26i%3Df2b2%26us%3D1%26vf%3D0%26vt%3D0%26ac%3D2%26st%3D0%26uid%3D2704661830%26name%3D18817583755%2540sina.cn%26nick%3D%25E8%25A3%2585%25E9%25A3%258E%25E7%259A%2584%25E5%25B0%258F%25E9%25BE%258D%26fmp%3D%26lcp%3D2012-03-08%252019%253A26%253A06'
p18
sS'SSOLoginState'
p19
S'1416402984'
p20
s.